#include <math.h>
#include <stdio.h>
#include <stdlib.h>
#include <string.h>

void main()
{
	char str[200][20];
	int i,j,n,k;
	scanf("%d",&n);
	for(i=0;i<n;i++)
	   {
		scanf("%s",&str[i]);getchar();
	} 
	 for(i=0;i<n;i++)
	{
		 k=strlen(str[i]);
		 if(str[i][k-1]=='r'||str[i][k-1]=='y')
	  { for(j=k-1;j>k-3;j--)
	        str[i][j]='\0';}

      if(str[i][k-1]=='g')
	  {
		  for(j=k-1;j>k-4;j--)
	          str[i][j]='\0';
	  }
	 printf("%s\n",str[i]);	
	 }
}
