; ModuleID = 'source-C-CXX/56/2152.c'
source_filename = "source-C-CXX/56/2152.c"
target datalayout = "e-m:e-p270:32:32-p271:32:32-p272:64:64-i64:64-f80:128-n8:16:32:64-S128"
target triple = "x86_64-pc-linux-gnu"

%struct._IO_FILE = type { i32, i8*, i8*, i8*, i8*, i8*, i8*, i8*, i8*, i8*, i8*, i8*, %struct._IO_marker*, %struct._IO_FILE*, i32, i32, i64, i16, i8, [1 x i8], i8*, i64, %struct._IO_codecvt*, %struct._IO_wide_data*, %struct._IO_FILE*, i8*, i64, i32, [20 x i8] }
%struct._IO_marker = type opaque
%struct._IO_codecvt = type opaque
%struct._IO_wide_data = type opaque

@.str = private unnamed_addr constant [3 x i8] c"%d\00", align 1
@.str.1 = private unnamed_addr constant [3 x i8] c"%s\00", align 1
@stdin = external local_unnamed_addr global %struct._IO_FILE*, align 8

; Function Attrs: nofree nounwind sspstrong uwtable
define dso_local void @main() local_unnamed_addr #0 {
  %1 = alloca [200 x [20 x i8]], align 16
  %2 = alloca i32, align 4
  %3 = getelementptr inbounds [200 x [20 x i8]], [200 x [20 x i8]]* %1, i64 0, i64 0, i64 0
  call void @llvm.lifetime.start.p0i8(i64 4000, i8* nonnull %3) #7
  %4 = bitcast i32* %2 to i8*
  call void @llvm.lifetime.start.p0i8(i64 4, i8* nonnull %4) #7
  %5 = call i32 (i8*, ...) @__isoc99_scanf(i8* getelementptr inbounds ([3 x i8], [3 x i8]* @.str, i64 0, i64 0), i32* nonnull %2)
  %6 = load i32, i32* %2, align 4, !tbaa !5
  %7 = icmp sgt i32 %6, 0
  br i1 %7, label %10, label %55

8:                                                ; preds = %10
  %9 = icmp sgt i32 %17, 0
  br i1 %9, label %20, label %55

10:                                               ; preds = %0, %10
  %11 = phi i64 [ %16, %10 ], [ 0, %0 ]
  %12 = getelementptr inbounds [200 x [20 x i8]], [200 x [20 x i8]]* %1, i64 0, i64 %11
  %13 = call i32 (i8*, ...) @__isoc99_scanf(i8* getelementptr inbounds ([3 x i8], [3 x i8]* @.str.1, i64 0, i64 0), [20 x i8]* nonnull %12)
  %14 = load %struct._IO_FILE*, %struct._IO_FILE** @stdin, align 8, !tbaa !9
  %15 = call i32 @getc(%struct._IO_FILE* %14) #7
  %16 = add nuw nsw i64 %11, 1
  %17 = load i32, i32* %2, align 4, !tbaa !5
  %18 = sext i32 %17 to i64
  %19 = icmp slt i64 %16, %18
  br i1 %19, label %10, label %8, !llvm.loop !11

20:                                               ; preds = %8, %49
  %21 = phi i64 [ %51, %49 ], [ 0, %8 ]
  %22 = getelementptr [200 x [20 x i8]], [200 x [20 x i8]]* %1, i64 0, i64 %21, i64 0
  %23 = call i64 @strlen(i8* noundef nonnull %22) #8
  %24 = trunc i64 %23 to i32
  %25 = add i32 %24, -1
  %26 = sext i32 %25 to i64
  %27 = getelementptr inbounds [200 x [20 x i8]], [200 x [20 x i8]]* %1, i64 0, i64 %21, i64 %26
  %28 = load i8, i8* %27, align 1, !tbaa !13
  switch i8 %28, label %38 [
    i8 114, label %29
    i8 121, label %29
  ]

29:                                               ; preds = %20, %20
  %30 = add i32 %24, -2
  %31 = call i32 @llvm.smin.i32(i32 %25, i32 %30)
  %32 = sub i32 %25, %31
  %33 = zext i32 %32 to i64
  %34 = sub nsw i64 %26, %33
  %35 = getelementptr [200 x [20 x i8]], [200 x [20 x i8]]* %1, i64 0, i64 %21, i64 %34
  %36 = add nuw nsw i64 %33, 1
  call void @llvm.memset.p0i8.i64(i8* noundef nonnull align 1 dereferenceable(1) %35, i8 0, i64 %36, i1 false)
  %37 = load i8, i8* %27, align 1, !tbaa !13
  br label %38

38:                                               ; preds = %29, %20
  %39 = phi i8 [ %37, %29 ], [ %28, %20 ]
  %40 = icmp eq i8 %39, 103
  br i1 %40, label %41, label %49

41:                                               ; preds = %38
  %42 = add i32 %24, -3
  %43 = call i32 @llvm.smin.i32(i32 %25, i32 %42)
  %44 = sub i32 %25, %43
  %45 = zext i32 %44 to i64
  %46 = sub nsw i64 %26, %45
  %47 = getelementptr [200 x [20 x i8]], [200 x [20 x i8]]* %1, i64 0, i64 %21, i64 %46
  %48 = add nuw nsw i64 %45, 1
  call void @llvm.memset.p0i8.i64(i8* noundef nonnull align 1 dereferenceable(1) %47, i8 0, i64 %48, i1 false)
  br label %49

49:                                               ; preds = %41, %38
  %50 = call i32 @puts(i8* nonnull %22)
  %51 = add nuw nsw i64 %21, 1
  %52 = load i32, i32* %2, align 4, !tbaa !5
  %53 = sext i32 %52 to i64
  %54 = icmp slt i64 %51, %53
  br i1 %54, label %20, label %55, !llvm.loop !14

55:                                               ; preds = %49, %0, %8
  call void @llvm.lifetime.end.p0i8(i64 4, i8* nonnull %4) #7
  call void @llvm.lifetime.end.p0i8(i64 4000, i8* nonnull %3) #7
  ret void
}

; Function Attrs: argmemonly mustprogress nofree nosync nounwind willreturn
declare void @llvm.lifetime.start.p0i8(i64 immarg, i8* nocapture) #1

; Function Attrs: nofree nounwind
declare noundef i32 @__isoc99_scanf(i8* nocapture noundef readonly, ...) local_unnamed_addr #2

; Function Attrs: argmemonly mustprogress nofree nounwind readonly willreturn
declare i64 @strlen(i8* nocapture) local_unnamed_addr #3

; Function Attrs: argmemonly mustprogress nofree nosync nounwind willreturn
declare void @llvm.lifetime.end.p0i8(i64 immarg, i8* nocapture) #1

; Function Attrs: nofree nounwind
declare noundef i32 @getc(%struct._IO_FILE* nocapture noundef) local_unnamed_addr #2

; Function Attrs: nofree nounwind
declare noundef i32 @puts(i8* nocapture noundef readonly) local_unnamed_addr #4

; Function Attrs: nofree nosync nounwind readnone speculatable willreturn
declare i32 @llvm.smin.i32(i32, i32) #5

; Function Attrs: argmemonly nofree nounwind willreturn writeonly
declare void @llvm.memset.p0i8.i64(i8* nocapture writeonly, i8, i64, i1 immarg) #6


!llvm.module.flags = !{!0, !1, !2, !3}
!llvm.ident = !{!4}

!0 = !{i32 1, !"wchar_size", i32 4}
!1 = !{i32 7, !"PIC Level", i32 2}
!2 = !{i32 7, !"PIE Level", i32 2}
!3 = !{i32 7, !"uwtable", i32 1}
!4 = !{!"clang version 13.0.0"}
!5 = !{!6, !6, i64 0}
!6 = !{!"int", !7, i64 0}
!7 = !{!"omnipotent char", !8, i64 0}
!8 = !{!"Simple C/C++ TBAA"}
!9 = !{!10, !10, i64 0}
!10 = !{!"any pointer", !7, i64 0}
!11 = distinct !{!11, !12}
!12 = !{!"llvm.loop.mustprogress"}
!13 = !{!7, !7, i64 0}
!14 = distinct !{!14, !12}
